target datalayout = "e-m:e-p270:32:32-p271:32:32-p272:64:64-i64:64-i128:128-f80:128-n8:16:32:64-S128"
target triple = "x86_64-pc-linux-gnu"

%struct.opj_stream_private = type { ptr, ptr, i64, ptr, ptr, ptr, ptr, ptr, ptr, ptr, ptr, i64, i64, i64, i32 }

@.str = private unnamed_addr constant [26 x i8] c"Stream reached its end !\0A\00", align 1

; Function Attrs: nounwind uwtable
define hidden i32 @opj_stream_read_seek(ptr noundef %0, i64 noundef %1, ptr noundef %2) #0 {
  %4 = alloca i32, align 4
  %5 = alloca ptr, align 8
  %6 = alloca i64, align 8
  %7 = alloca ptr, align 8
  store ptr %0, ptr %5, align 8, !tbaa !30
  store i64 %1, ptr %6, align 8, !tbaa !28
  store ptr %2, ptr %7, align 8, !tbaa !43
  %8 = load ptr, ptr %5, align 8, !tbaa !30
  %9 = getelementptr inbounds nuw %struct.opj_stream_private, ptr %8, i32 0, i32 7
  %10 = load ptr, ptr %9, align 8, !tbaa !34
  %11 = load ptr, ptr %5, align 8, !tbaa !30
  %12 = getelementptr inbounds nuw %struct.opj_stream_private, ptr %11, i32 0, i32 8
  store ptr %10, ptr %12, align 8, !tbaa !35
  %13 = load ptr, ptr %5, align 8, !tbaa !30
  %14 = getelementptr inbounds nuw %struct.opj_stream_private, ptr %13, i32 0, i32 11
  store i64 0, ptr %14, align 8, !tbaa !45
  %15 = load ptr, ptr %5, align 8, !tbaa !30
  %16 = getelementptr inbounds nuw %struct.opj_stream_private, ptr %15, i32 0, i32 6
  %17 = load ptr, ptr %16, align 8, !tbaa !42
  %18 = load i64, ptr %6, align 8, !tbaa !28
  %19 = load ptr, ptr %5, align 8, !tbaa !30
  %20 = getelementptr inbounds nuw %struct.opj_stream_private, ptr %19, i32 0, i32 0
  %21 = load ptr, ptr %20, align 8, !tbaa !48
  %22 = call i32 %17(i64 noundef %18, ptr noundef %21)
  %23 = icmp ne i32 %22, 0
  br i1 %23, label %29, label %24

24:                                               ; preds = %3
  %25 = load ptr, ptr %5, align 8, !tbaa !30
  %26 = getelementptr inbounds nuw %struct.opj_stream_private, ptr %25, i32 0, i32 14
  %27 = load i32, ptr %26, align 8, !tbaa !36
  %28 = or i32 %27, 4
  store i32 %28, ptr %26, align 8, !tbaa !36
  store i32 0, ptr %4, align 4
  br label %38

29:                                               ; preds = %3
  %30 = load ptr, ptr %5, align 8, !tbaa !30
  %31 = getelementptr inbounds nuw %struct.opj_stream_private, ptr %30, i32 0, i32 14
  %32 = load i32, ptr %31, align 8, !tbaa !36
  %33 = and i32 %32, -5
  store i32 %33, ptr %31, align 8, !tbaa !36
  %34 = load i64, ptr %6, align 8, !tbaa !28
  %35 = load ptr, ptr %5, align 8, !tbaa !30
  %36 = getelementptr inbounds nuw %struct.opj_stream_private, ptr %35, i32 0, i32 12
  store i64 %34, ptr %36, align 8, !tbaa !46
  br label %37

37:                                               ; preds = %29
  store i32 1, ptr %4, align 4
  br label %38

38:                                               ; preds = %37, %24
  %39 = load i32, ptr %4, align 4
  ret i32 %39
}

; Function Attrs: nounwind uwtable
define hidden i64 @opj_stream_read_skip(ptr noundef %0, i64 noundef %1, ptr noundef %2) #0 {
  %4 = alloca i64, align 8
  %5 = alloca ptr, align 8
  %6 = alloca i64, align 8
  %7 = alloca ptr, align 8
  %8 = alloca i64, align 8
  %9 = alloca i64, align 8
  %10 = alloca i32, align 4
  store ptr %0, ptr %5, align 8, !tbaa !30
  store i64 %1, ptr %6, align 8, !tbaa !28
  store ptr %2, ptr %7, align 8, !tbaa !43
  call void @llvm.lifetime.start.p0(i64 8, ptr %8) #4
  store i64 0, ptr %8, align 8, !tbaa !28
  call void @llvm.lifetime.start.p0(i64 8, ptr %9) #4
  store i64 0, ptr %9, align 8, !tbaa !28
  %11 = load ptr, ptr %5, align 8, !tbaa !30
  %12 = getelementptr inbounds nuw %struct.opj_stream_private, ptr %11, i32 0, i32 11
  %13 = load i64, ptr %12, align 8, !tbaa !45
  %14 = load i64, ptr %6, align 8, !tbaa !28
  %15 = icmp uge i64 %13, %14
  br i1 %15, label %16, label %36

16:                                               ; preds = %3
  %17 = load i64, ptr %6, align 8, !tbaa !28
  %18 = load ptr, ptr %5, align 8, !tbaa !30
  %19 = getelementptr inbounds nuw %struct.opj_stream_private, ptr %18, i32 0, i32 8
  %20 = load ptr, ptr %19, align 8, !tbaa !35
  %21 = getelementptr inbounds i8, ptr %20, i64 %17
  store ptr %21, ptr %19, align 8, !tbaa !35
  %22 = load i64, ptr %6, align 8, !tbaa !28
  %23 = load ptr, ptr %5, align 8, !tbaa !30
  %24 = getelementptr inbounds nuw %struct.opj_stream_private, ptr %23, i32 0, i32 11
  %25 = load i64, ptr %24, align 8, !tbaa !45
  %26 = sub i64 %25, %22
  store i64 %26, ptr %24, align 8, !tbaa !45
  %27 = load i64, ptr %6, align 8, !tbaa !28
  %28 = load i64, ptr %8, align 8, !tbaa !28
  %29 = add nsw i64 %28, %27
  store i64 %29, ptr %8, align 8, !tbaa !28
  %30 = load i64, ptr %8, align 8, !tbaa !28
  %31 = load ptr, ptr %5, align 8, !tbaa !30
  %32 = getelementptr inbounds nuw %struct.opj_stream_private, ptr %31, i32 0, i32 12
  %33 = load i64, ptr %32, align 8, !tbaa !46
  %34 = add nsw i64 %33, %30
  store i64 %34, ptr %32, align 8, !tbaa !46
  %35 = load i64, ptr %8, align 8, !tbaa !28
  store i64 %35, ptr %4, align 8
  store i32 1, ptr %10, align 4
  br label %184

36:                                               ; preds = %3
  %37 = load ptr, ptr %5, align 8, !tbaa !30
  %38 = getelementptr inbounds nuw %struct.opj_stream_private, ptr %37, i32 0, i32 14
  %39 = load i32, ptr %38, align 8, !tbaa !36
  %40 = and i32 %39, 4
  %41 = icmp ne i32 %40, 0
  br i1 %41, label %42, label %69

42:                                               ; preds = %36
  %43 = load ptr, ptr %5, align 8, !tbaa !30
  %44 = getelementptr inbounds nuw %struct.opj_stream_private, ptr %43, i32 0, i32 11
  %45 = load i64, ptr %44, align 8, !tbaa !45
  %46 = load i64, ptr %8, align 8, !tbaa !28
  %47 = add nsw i64 %46, %45
  store i64 %47, ptr %8, align 8, !tbaa !28
  %48 = load ptr, ptr %5, align 8, !tbaa !30
  %49 = getelementptr inbounds nuw %struct.opj_stream_private, ptr %48, i32 0, i32 11
  %50 = load i64, ptr %49, align 8, !tbaa !45
  %51 = load ptr, ptr %5, align 8, !tbaa !30
  %52 = getelementptr inbounds nuw %struct.opj_stream_private, ptr %51, i32 0, i32 8
  %53 = load ptr, ptr %52, align 8, !tbaa !35
  %54 = getelementptr inbounds nuw i8, ptr %53, i64 %50
  store ptr %54, ptr %52, align 8, !tbaa !35
  %55 = load ptr, ptr %5, align 8, !tbaa !30
  %56 = getelementptr inbounds nuw %struct.opj_stream_private, ptr %55, i32 0, i32 11
  store i64 0, ptr %56, align 8, !tbaa !45
  %57 = load i64, ptr %8, align 8, !tbaa !28
  %58 = load ptr, ptr %5, align 8, !tbaa !30
  %59 = getelementptr inbounds nuw %struct.opj_stream_private, ptr %58, i32 0, i32 12
  %60 = load i64, ptr %59, align 8, !tbaa !46
  %61 = add nsw i64 %60, %57
  store i64 %61, ptr %59, align 8, !tbaa !46
  %62 = load i64, ptr %8, align 8, !tbaa !28
  %63 = icmp ne i64 %62, 0
  br i1 %63, label %64, label %66

64:                                               ; preds = %42
  %65 = load i64, ptr %8, align 8, !tbaa !28
  br label %67

66:                                               ; preds = %42
  br label %67

67:                                               ; preds = %66, %64
  %68 = phi i64 [ %65, %64 ], [ -1, %66 ]
  store i64 %68, ptr %4, align 8
  store i32 1, ptr %10, align 4
  br label %184

69:                                               ; preds = %36
  %70 = load ptr, ptr %5, align 8, !tbaa !30
  %71 = getelementptr inbounds nuw %struct.opj_stream_private, ptr %70, i32 0, i32 11
  %72 = load i64, ptr %71, align 8, !tbaa !45
  %73 = icmp ne i64 %72, 0
  br i1 %73, label %74, label %92

74:                                               ; preds = %69
  %75 = load ptr, ptr %5, align 8, !tbaa !30
  %76 = getelementptr inbounds nuw %struct.opj_stream_private, ptr %75, i32 0, i32 11
  %77 = load i64, ptr %76, align 8, !tbaa !45
  %78 = load i64, ptr %8, align 8, !tbaa !28
  %79 = add nsw i64 %78, %77
  store i64 %79, ptr %8, align 8, !tbaa !28
  %80 = load ptr, ptr %5, align 8, !tbaa !30
  %81 = getelementptr inbounds nuw %struct.opj_stream_private, ptr %80, i32 0, i32 7
  %82 = load ptr, ptr %81, align 8, !tbaa !34
  %83 = load ptr, ptr %5, align 8, !tbaa !30
  %84 = getelementptr inbounds nuw %struct.opj_stream_private, ptr %83, i32 0, i32 8
  store ptr %82, ptr %84, align 8, !tbaa !35
  %85 = load ptr, ptr %5, align 8, !tbaa !30
  %86 = getelementptr inbounds nuw %struct.opj_stream_private, ptr %85, i32 0, i32 11
  %87 = load i64, ptr %86, align 8, !tbaa !45
  %88 = load i64, ptr %6, align 8, !tbaa !28
  %89 = sub nsw i64 %88, %87
  store i64 %89, ptr %6, align 8, !tbaa !28
  %90 = load ptr, ptr %5, align 8, !tbaa !30
  %91 = getelementptr inbounds nuw %struct.opj_stream_private, ptr %90, i32 0, i32 11
  store i64 0, ptr %91, align 8, !tbaa !45
  br label %92

92:                                               ; preds = %74, %69
  br label %93

93:                                               ; preds = %170, %92
  %94 = load i64, ptr %6, align 8, !tbaa !28
  %95 = icmp sgt i64 %94, 0
  br i1 %95, label %96, label %177

96:                                               ; preds = %93
  %97 = load ptr, ptr %5, align 8, !tbaa !30
  %98 = getelementptr inbounds nuw %struct.opj_stream_private, ptr %97, i32 0, i32 12
  %99 = load i64, ptr %98, align 8, !tbaa !46
  %100 = load i64, ptr %8, align 8, !tbaa !28
  %101 = add nsw i64 %99, %100
  %102 = load i64, ptr %6, align 8, !tbaa !28
  %103 = add nsw i64 %101, %102
  %104 = load ptr, ptr %5, align 8, !tbaa !30
  %105 = getelementptr inbounds nuw %struct.opj_stream_private, ptr %104, i32 0, i32 2
  %106 = load i64, ptr %105, align 8, !tbaa !47
  %107 = icmp ugt i64 %103, %106
  br i1 %107, label %108, label %140

108:                                              ; preds = %96
  %109 = load ptr, ptr %7, align 8, !tbaa !43
  %110 = call i32 (ptr, i32, ptr, ...) @opj_event_msg(ptr noundef %109, i32 noundef 4, ptr noundef @.str)
  %111 = load i64, ptr %8, align 8, !tbaa !28
  %112 = load ptr, ptr %5, align 8, !tbaa !30
  %113 = getelementptr inbounds nuw %struct.opj_stream_private, ptr %112, i32 0, i32 12
  %114 = load i64, ptr %113, align 8, !tbaa !46
  %115 = add nsw i64 %114, %111
  store i64 %115, ptr %113, align 8, !tbaa !46
  %116 = load ptr, ptr %5, align 8, !tbaa !30
  %117 = getelementptr inbounds nuw %struct.opj_stream_private, ptr %116, i32 0, i32 2
  %118 = load i64, ptr %117, align 8, !tbaa !47
  %119 = load ptr, ptr %5, align 8, !tbaa !30
  %120 = getelementptr inbounds nuw %struct.opj_stream_private, ptr %119, i32 0, i32 12
  %121 = load i64, ptr %120, align 8, !tbaa !46
  %122 = sub i64 %118, %121
  store i64 %122, ptr %8, align 8, !tbaa !28
  %123 = load ptr, ptr %5, align 8, !tbaa !30
  %124 = load ptr, ptr %5, align 8, !tbaa !30
  %125 = getelementptr inbounds nuw %struct.opj_stream_private, ptr %124, i32 0, i32 2
  %126 = load i64, ptr %125, align 8, !tbaa !47
  %127 = load ptr, ptr %7, align 8, !tbaa !43
  %128 = call i32 @opj_stream_read_seek(ptr noundef %123, i64 noundef %126, ptr noundef %127)
  %129 = load ptr, ptr %5, align 8, !tbaa !30
  %130 = getelementptr inbounds nuw %struct.opj_stream_private, ptr %129, i32 0, i32 14
  %131 = load i32, ptr %130, align 8, !tbaa !36
  %132 = or i32 %131, 4
  store i32 %132, ptr %130, align 8, !tbaa !36
  %133 = load i64, ptr %8, align 8, !tbaa !28
  %134 = icmp ne i64 %133, 0
  br i1 %134, label %135, label %137

135:                                              ; preds = %108
  %136 = load i64, ptr %8, align 8, !tbaa !28
  br label %138

137:                                              ; preds = %108
  br label %138

138:                                              ; preds = %137, %135
  %139 = phi i64 [ %136, %135 ], [ -1, %137 ]
  store i64 %139, ptr %4, align 8
  store i32 1, ptr %10, align 4
  br label %184

140:                                              ; preds = %96
  %141 = load ptr, ptr %5, align 8, !tbaa !30
  %142 = getelementptr inbounds nuw %struct.opj_stream_private, ptr %141, i32 0, i32 5
  %143 = load ptr, ptr %142, align 8, !tbaa !41
  %144 = load i64, ptr %6, align 8, !tbaa !28
  %145 = load ptr, ptr %5, align 8, !tbaa !30
  %146 = getelementptr inbounds nuw %struct.opj_stream_private, ptr %145, i32 0, i32 0
  %147 = load ptr, ptr %146, align 8, !tbaa !48
  %148 = call i64 %143(i64 noundef %144, ptr noundef %147)
  store i64 %148, ptr %9, align 8, !tbaa !28
  %149 = load i64, ptr %9, align 8, !tbaa !28
  %150 = icmp eq i64 %149, -1
  br i1 %150, label %151, label %170

151:                                              ; preds = %140
  %152 = load ptr, ptr %7, align 8, !tbaa !43
  %153 = call i32 (ptr, i32, ptr, ...) @opj_event_msg(ptr noundef %152, i32 noundef 4, ptr noundef @.str)
  %154 = load ptr, ptr %5, align 8, !tbaa !30
  %155 = getelementptr inbounds nuw %struct.opj_stream_private, ptr %154, i32 0, i32 14
  %156 = load i32, ptr %155, align 8, !tbaa !36
  %157 = or i32 %156, 4
  store i32 %157, ptr %155, align 8, !tbaa !36
  %158 = load i64, ptr %8, align 8, !tbaa !28
  %159 = load ptr, ptr %5, align 8, !tbaa !30
  %160 = getelementptr inbounds nuw %struct.opj_stream_private, ptr %159, i32 0, i32 12
  %161 = load i64, ptr %160, align 8, !tbaa !46
  %162 = add nsw i64 %161, %158
  store i64 %162, ptr %160, align 8, !tbaa !46
  %163 = load i64, ptr %8, align 8, !tbaa !28
  %164 = icmp ne i64 %163, 0
  br i1 %164, label %165, label %167

165:                                              ; preds = %151
  %166 = load i64, ptr %8, align 8, !tbaa !28
  br label %168

167:                                              ; preds = %151
  br label %168

168:                                              ; preds = %167, %165
  %169 = phi i64 [ %166, %165 ], [ -1, %167 ]
  store i64 %169, ptr %4, align 8
  store i32 1, ptr %10, align 4
  br label %184

170:                                              ; preds = %140
  %171 = load i64, ptr %9, align 8, !tbaa !28
  %172 = load i64, ptr %6, align 8, !tbaa !28
  %173 = sub nsw i64 %172, %171
  store i64 %173, ptr %6, align 8, !tbaa !28
  %174 = load i64, ptr %9, align 8, !tbaa !28
  %175 = load i64, ptr %8, align 8, !tbaa !28
  %176 = add nsw i64 %175, %174
  store i64 %176, ptr %8, align 8, !tbaa !28
  br label %93, !llvm.loop !49

177:                                              ; preds = %93
  %178 = load i64, ptr %8, align 8, !tbaa !28
  %179 = load ptr, ptr %5, align 8, !tbaa !30
  %180 = getelementptr inbounds nuw %struct.opj_stream_private, ptr %179, i32 0, i32 12
  %181 = load i64, ptr %180, align 8, !tbaa !46
  %182 = add nsw i64 %181, %178
  store i64 %182, ptr %180, align 8, !tbaa !46
  %183 = load i64, ptr %8, align 8, !tbaa !28
  store i64 %183, ptr %4, align 8
  store i32 1, ptr %10, align 4
  br label %184

184:                                              ; preds = %177, %168, %138, %67, %16
  call void @llvm.lifetime.end.p0(i64 8, ptr %9) #4
  call void @llvm.lifetime.end.p0(i64 8, ptr %8) #4
  %185 = load i64, ptr %4, align 8
  ret i64 %185
}