; Function Attrs: nounwind uwtable
define hidden i64 @opj_stream_read_skip(ptr noundef captures(none) %0, i64 noundef %1, ptr noundef %2) #5 {
  %4 = getelementptr inbounds nuw i8, ptr %0, i64 88
  %5 = load i64, ptr %4, align 8, !tbaa !33
  %.not = icmp ult i64 %5, %1
  br i1 %.not, label %14, label %6

6:                                                ; preds = %3
  %7 = getelementptr inbounds nuw i8, ptr %0, i64 64
  %8 = load ptr, ptr %7, align 8, !tbaa !25
  %9 = getelementptr inbounds i8, ptr %8, i64 %1
  store ptr %9, ptr %7, align 8, !tbaa !25
  %10 = sub nuw i64 %5, %1
  store i64 %10, ptr %4, align 8, !tbaa !33
  %11 = getelementptr inbounds nuw i8, ptr %0, i64 96
  %12 = load i64, ptr %11, align 8, !tbaa !34
  %13 = add nsw i64 %12, %1
  store i64 %13, ptr %11, align 8, !tbaa !34
  br label %78

14:                                               ; preds = %3
  %15 = getelementptr inbounds nuw i8, ptr %0, i64 112
  %16 = load i32, ptr %15, align 8, !tbaa !26
  %17 = and i32 %16, 4
  %.not69 = icmp eq i32 %17, 0
  br i1 %.not69, label %26, label %18

18:                                               ; preds = %14
  %19 = getelementptr inbounds nuw i8, ptr %0, i64 64
  %20 = load ptr, ptr %19, align 8, !tbaa !25
  %21 = getelementptr inbounds nuw i8, ptr %20, i64 %5
  store ptr %21, ptr %19, align 8, !tbaa !25
  store i64 0, ptr %4, align 8, !tbaa !33
  %22 = getelementptr inbounds nuw i8, ptr %0, i64 96
  %23 = load i64, ptr %22, align 8, !tbaa !34
  %24 = add nsw i64 %23, %5
  store i64 %24, ptr %22, align 8, !tbaa !34
  %.not73 = icmp eq i64 %5, 0
  %25 = select i1 %.not73, i64 -1, i64 %5
  br label %78

26:                                               ; preds = %14
  %.not70 = icmp eq i64 %5, 0
  br i1 %.not70, label %32, label %27

27:                                               ; preds = %26
  %28 = getelementptr inbounds nuw i8, ptr %0, i64 56
  %29 = load ptr, ptr %28, align 8, !tbaa !24
  %30 = getelementptr inbounds nuw i8, ptr %0, i64 64
  store ptr %29, ptr %30, align 8, !tbaa !25
  %31 = sub nsw i64 %1, %5
  store i64 0, ptr %4, align 8, !tbaa !33
  br label %32

32:                                               ; preds = %27, %26
  %.063 = phi i64 [ %31, %27 ], [ %1, %26 ]
  %33 = icmp sgt i64 %.063, 0
  br i1 %33, label %.lr.ph, label %._crit_edge

.lr.ph:                                           ; preds = %32
  %34 = getelementptr inbounds nuw i8, ptr %0, i64 96
  %35 = getelementptr inbounds nuw i8, ptr %0, i64 16
  %36 = getelementptr inbounds nuw i8, ptr %0, i64 40
  br label %37

37:                                               ; preds = %.lr.ph, %71
  %.180 = phi i64 [ %5, %.lr.ph ], [ %73, %71 ]
  %.16479 = phi i64 [ %.063, %.lr.ph ], [ %72, %71 ]
  %38 = load i64, ptr %34, align 8, !tbaa !34
  %39 = add i64 %.180, %.16479
  %40 = add i64 %39, %38
  %41 = load i64, ptr %35, align 8, !tbaa !35
  %42 = icmp ugt i64 %40, %41
  br i1 %42, label %43, label %59

43:                                               ; preds = %37
  %44 = tail call i32 (ptr, i32, ptr, ...) @opj_event_msg(ptr noundef %2, i32 noundef 4, ptr noundef nonnull @.str) #9
  %45 = load i64, ptr %34, align 8, !tbaa !34
  %46 = add nsw i64 %45, %.180
  store i64 %46, ptr %34, align 8, !tbaa !34
  %47 = load i64, ptr %35, align 8, !tbaa !35
  %48 = sub i64 %47, %46
  %49 = getelementptr inbounds nuw i8, ptr %0, i64 56
  %50 = load ptr, ptr %49, align 8, !tbaa !24
  %51 = getelementptr inbounds nuw i8, ptr %0, i64 64
  store ptr %50, ptr %51, align 8, !tbaa !25
  store i64 0, ptr %4, align 8, !tbaa !33
  %52 = getelementptr inbounds nuw i8, ptr %0, i64 48
  %53 = load ptr, ptr %52, align 8, !tbaa !32
  %54 = load ptr, ptr %0, align 8, !tbaa !36
  %55 = tail call i32 %53(i64 noundef %47, ptr noundef %54) #9
  %.not.i = icmp eq i32 %55, 0
  %56 = load i32, ptr %15, align 8, !tbaa !26
  br i1 %.not.i, label %opj_stream_read_seek.exit, label %57

57:                                               ; preds = %43
  store i64 %47, ptr %34, align 8, !tbaa !34
  br label %opj_stream_read_seek.exit

opj_stream_read_seek.exit:                        ; preds = %43, %57
  %.sink = or i32 %56, 4
  store i32 %.sink, ptr %15, align 8, !tbaa !26
  %.not72 = icmp eq i64 %47, %46
  %58 = select i1 %.not72, i64 -1, i64 %48
  br label %78

59:                                               ; preds = %37
  %60 = load ptr, ptr %36, align 8, !tbaa !31
  %61 = load ptr, ptr %0, align 8, !tbaa !36
  %62 = tail call i64 %60(i64 noundef %.16479, ptr noundef %61) #9
  %63 = icmp eq i64 %62, -1
  br i1 %63, label %64, label %71

64:                                               ; preds = %59
  %65 = tail call i32 (ptr, i32, ptr, ...) @opj_event_msg(ptr noundef %2, i32 noundef 4, ptr noundef nonnull @.str) #9
  %66 = load i32, ptr %15, align 8, !tbaa !26
  %67 = or i32 %66, 4
  store i32 %67, ptr %15, align 8, !tbaa !26
  %68 = load i64, ptr %34, align 8, !tbaa !34
  %69 = add nsw i64 %68, %.180
  store i64 %69, ptr %34, align 8, !tbaa !34
  %.not71 = icmp eq i64 %.180, 0
  %70 = select i1 %.not71, i64 -1, i64 %.180
  br label %78

71:                                               ; preds = %59
  %72 = sub nsw i64 %.16479, %62
  %73 = add nsw i64 %62, %.180
  %74 = icmp sgt i64 %72, 0
  br i1 %74, label %37, label %._crit_edge, !llvm.loop !37

._crit_edge:                                      ; preds = %71, %32
  %.1.lcssa = phi i64 [ %5, %32 ], [ %73, %71 ]
  %75 = getelementptr inbounds nuw i8, ptr %0, i64 96
  %76 = load i64, ptr %75, align 8, !tbaa !34
  %77 = add nsw i64 %76, %.1.lcssa
  store i64 %77, ptr %75, align 8, !tbaa !34
  br label %78

78:                                               ; preds = %._crit_edge, %64, %opj_stream_read_seek.exit, %18, %6
  %.062 = phi i64 [ %1, %6 ], [ %25, %18 ], [ %58, %opj_stream_read_seek.exit ], [ %70, %64 ], [ %.1.lcssa, %._crit_edge ]
  ret i64 %.062
}